target datalayout = "e-m:e-p270:32:32-p271:32:32-p272:64:64-i64:64-i128:128-f80:128-n8:16:32:64-S128"
target triple = "x86_64-pc-linux-gnu"

%class.anon = type { ptr, ptr, ptr, ptr, ptr, ptr, ptr }
%"class.icu_77::CheckedArrayByteSink" = type <{ %"class.icu_77::ByteSink", ptr, i32, i32, i32, i8, [3 x i8] }>
%"class.icu_77::ByteSink" = type { ptr }

; Function Attrs: mustprogress nounwind uwtable
define linkonce_odr noundef signext i8 @_ZNK6icu_7720CheckedArrayByteSink10OverflowedEv(ptr noundef nonnull align 8 dereferenceable(29) %0) #0 comdat align 2 {
  %2 = alloca ptr, align 8
  store ptr %0, ptr %2, align 8, !tbaa !97
  %3 = load ptr, ptr %2, align 8
  %4 = getelementptr inbounds nuw %"class.icu_77::CheckedArrayByteSink", ptr %3, i32 0, i32 5
  %5 = load i8, ptr %4, align 4, !tbaa !102
  ret i8 %5
}

; Function Attrs: mustprogress nounwind uwtable
define linkonce_odr noundef i32 @_ZNK6icu_7720CheckedArrayByteSink21NumberOfBytesAppendedEv(ptr noundef nonnull align 8 dereferenceable(29) %0) #0 comdat align 2 {
  %2 = alloca ptr, align 8
  store ptr %0, ptr %2, align 8, !tbaa !97
  %3 = load ptr, ptr %2, align 8
  %4 = getelementptr inbounds nuw %"class.icu_77::CheckedArrayByteSink", ptr %3, i32 0, i32 4
  %5 = load i32, ptr %4, align 8, !tbaa !99
  ret i32 %5
}

; Function Attrs: inlinehint mustprogress uwtable
define internal void @"_ZZ19ucasemap_mapUTF8_77ijPN6icu_7713BreakIteratorEPciPKciPFvijS1_PKhiRNS_8ByteSinkEPNS_5EditsER10UErrorCodeESA_SC_ENK3$_0clES8_SC_"(ptr noundef nonnull align 8 dereferenceable(56) %0, ptr noundef nonnull align 8 dereferenceable(8) %1, ptr noundef nonnull align 4 dereferenceable(4) %2) #3 align 2 {
  %4 = alloca ptr, align 8
  %5 = alloca ptr, align 8
  %6 = alloca ptr, align 8
  store ptr %0, ptr %4, align 8, !tbaa !22
  store ptr %1, ptr %5, align 8, !tbaa !34
  store ptr %2, ptr %6, align 8, !tbaa !22
  %7 = load ptr, ptr %4, align 8
  %8 = getelementptr inbounds nuw %class.anon, ptr %7, i32 0, i32 0
  %9 = load ptr, ptr %8, align 8, !tbaa !89
  %10 = load ptr, ptr %9, align 8, !tbaa !22
  %11 = getelementptr inbounds nuw %class.anon, ptr %7, i32 0, i32 1
  %12 = load ptr, ptr %11, align 8, !tbaa !91
  %13 = load i32, ptr %12, align 4, !tbaa !14
  %14 = getelementptr inbounds nuw %class.anon, ptr %7, i32 0, i32 2
  %15 = load ptr, ptr %14, align 8, !tbaa !92
  %16 = load i32, ptr %15, align 4, !tbaa !14
  %17 = getelementptr inbounds nuw %class.anon, ptr %7, i32 0, i32 3
  %18 = load ptr, ptr %17, align 8, !tbaa !93
  %19 = load ptr, ptr %18, align 8, !tbaa !33
  %20 = getelementptr inbounds nuw %class.anon, ptr %7, i32 0, i32 4
  %21 = load ptr, ptr %20, align 8, !tbaa !94
  %22 = load ptr, ptr %21, align 8, !tbaa !17
  %23 = getelementptr inbounds nuw %class.anon, ptr %7, i32 0, i32 5
  %24 = load ptr, ptr %23, align 8, !tbaa !95
  %25 = load i32, ptr %24, align 4, !tbaa !14
  %26 = load ptr, ptr %5, align 8, !tbaa !34
  %27 = getelementptr inbounds nuw %class.anon, ptr %7, i32 0, i32 6
  %28 = load ptr, ptr %27, align 8, !tbaa !96
  %29 = load ptr, ptr %28, align 8, !tbaa !36
  %30 = load ptr, ptr %6, align 8, !tbaa !22
  call void %10(i32 noundef %13, i32 noundef %16, ptr noundef %19, ptr noundef %22, i32 noundef %25, ptr noundef nonnull align 8 dereferenceable(8) %26, ptr noundef %29, ptr noundef nonnull align 4 dereferenceable(4) %30)
  ret void
}

; Function Attrs: inlinehint mustprogress nounwind uwtable
define internal noundef signext i8 @_ZL9U_SUCCESS10UErrorCode(i32 noundef %0) #2 {
  %2 = alloca i32, align 4
  store i32 %0, ptr %2, align 4, !tbaa !15
  %3 = load i32, ptr %2, align 4, !tbaa !15
  %4 = icmp sle i32 %3, 0
  %5 = zext i1 %4 to i8
  ret i8 %5
}

; Function Attrs: mustprogress uwtable
define internal noundef i32 @"_ZN6icu_7712ByteSinkUtil28viaByteSinkToTerminatedCharsIZ19ucasemap_mapUTF8_77ijPNS_13BreakIteratorEPciPKciPFvijS3_PKhiRNS_8ByteSinkEPNS_5EditsER10UErrorCodeESC_SE_E3$_0vEEiS4_iOT_SE_"(ptr noundef %0, i32 noundef %1, ptr noundef nonnull align 8 dereferenceable(56) %2, ptr noundef nonnull align 4 dereferenceable(4) %3) #1 align 2 personality ptr @__gxx_personality_v0 {
  %5 = alloca i32, align 4
  %6 = alloca ptr, align 8
  %7 = alloca i32, align 4
  %8 = alloca ptr, align 8
  %9 = alloca ptr, align 8
  %10 = alloca %"class.icu_77::CheckedArrayByteSink", align 8
  %11 = alloca ptr, align 8
  %12 = alloca i32, align 4
  %13 = alloca i32, align 4
  %14 = alloca i32, align 4
  store ptr %0, ptr %6, align 8, !tbaa !17
  store i32 %1, ptr %7, align 4, !tbaa !14
  store ptr %2, ptr %8, align 8, !tbaa !22
  store ptr %3, ptr %9, align 8, !tbaa !22
  %15 = load ptr, ptr %9, align 8, !tbaa !22
  %16 = load i32, ptr %15, align 4, !tbaa !15
  %17 = call noundef signext i8 @_ZL9U_FAILURE10UErrorCode(i32 noundef %16)
  %18 = icmp ne i8 %17, 0
  br i1 %18, label %19, label %20

19:                                               ; preds = %4
  store i32 0, ptr %5, align 4
  br label %58

20:                                               ; preds = %4
  call void @llvm.lifetime.start.p0(i64 32, ptr %10) #12
  %21 = load ptr, ptr %6, align 8, !tbaa !17
  %22 = load i32, ptr %7, align 4, !tbaa !14
  call void @_ZN6icu_7720CheckedArrayByteSinkC1EPci(ptr noundef nonnull align 8 dereferenceable(29) %10, ptr noundef %21, i32 noundef %22)
  %23 = load ptr, ptr %8, align 8, !tbaa !22
  %24 = load ptr, ptr %9, align 8, !tbaa !22
  invoke void @"_ZZ19ucasemap_mapUTF8_77ijPN6icu_7713BreakIteratorEPciPKciPFvijS1_PKhiRNS_8ByteSinkEPNS_5EditsER10UErrorCodeESA_SC_ENK3$_0clES8_SC_"(ptr noundef nonnull align 8 dereferenceable(56) %23, ptr noundef nonnull align 8 dereferenceable(8) %10, ptr noundef nonnull align 4 dereferenceable(4) %24)
          to label %25 unwind label %31

25:                                               ; preds = %20
  %26 = load ptr, ptr %9, align 8, !tbaa !22
  %27 = load i32, ptr %26, align 4, !tbaa !15
  %28 = call noundef signext i8 @_ZL9U_FAILURE10UErrorCode(i32 noundef %27)
  %29 = icmp ne i8 %28, 0
  br i1 %29, label %30, label %35

30:                                               ; preds = %25
  store i32 0, ptr %5, align 4
  store i32 1, ptr %13, align 4
  br label %56

31:                                               ; preds = %20
  %32 = landingpad { ptr, i32 }
          cleanup
  %33 = extractvalue { ptr, i32 } %32, 0
  store ptr %33, ptr %11, align 8
  %34 = extractvalue { ptr, i32 } %32, 1
  store i32 %34, ptr %12, align 4
  br label %57

35:                                               ; preds = %25
  call void @llvm.lifetime.start.p0(i64 4, ptr %14) #12
  %36 = invoke noundef i32 @_ZNK6icu_7720CheckedArrayByteSink21NumberOfBytesAppendedEv(ptr noundef nonnull align 8 dereferenceable(29) %10)
          to label %37 unwind label %44

37:                                               ; preds = %35
  store i32 %36, ptr %14, align 4, !tbaa !14
  %38 = invoke noundef signext i8 @_ZNK6icu_7720CheckedArrayByteSink10OverflowedEv(ptr noundef nonnull align 8 dereferenceable(29) %10)
          to label %39 unwind label %44

39:                                               ; preds = %37
  %40 = icmp ne i8 %38, 0
  br i1 %40, label %41, label %48

41:                                               ; preds = %39
  %42 = load ptr, ptr %9, align 8, !tbaa !22
  store i32 15, ptr %42, align 4, !tbaa !15
  %43 = load i32, ptr %14, align 4, !tbaa !14
  store i32 %43, ptr %5, align 4
  store i32 1, ptr %13, align 4
  br label %55

44:                                               ; preds = %48, %37, %35
  %45 = landingpad { ptr, i32 }
          cleanup
  %46 = extractvalue { ptr, i32 } %45, 0
  store ptr %46, ptr %11, align 8
  %47 = extractvalue { ptr, i32 } %45, 1
  store i32 %47, ptr %12, align 4
  call void @llvm.lifetime.end.p0(i64 4, ptr %14) #12
  br label %57

48:                                               ; preds = %39
  %49 = load ptr, ptr %6, align 8, !tbaa !17
  %50 = load i32, ptr %7, align 4, !tbaa !14
  %51 = load i32, ptr %14, align 4, !tbaa !14
  %52 = load ptr, ptr %9, align 8, !tbaa !22
  %53 = invoke i32 @u_terminateChars_77(ptr noundef %49, i32 noundef %50, i32 noundef %51, ptr noundef %52)
          to label %54 unwind label %44

54:                                               ; preds = %48
  store i32 %53, ptr %5, align 4
  store i32 1, ptr %13, align 4
  br label %55

55:                                               ; preds = %54, %41
  call void @llvm.lifetime.end.p0(i64 4, ptr %14) #12
  br label %56

56:                                               ; preds = %55, %30
  call void @_ZN6icu_7720CheckedArrayByteSinkD1Ev(ptr noundef nonnull align 8 dereferenceable(29) %10) #12
  call void @llvm.lifetime.end.p0(i64 32, ptr %10) #12
  br label %58

57:                                               ; preds = %44, %31
  call void @_ZN6icu_7720CheckedArrayByteSinkD1Ev(ptr noundef nonnull align 8 dereferenceable(29) %10) #12
  call void @llvm.lifetime.end.p0(i64 32, ptr %10) #12
  br label %60

58:                                               ; preds = %56, %19
  %59 = load i32, ptr %5, align 4
  ret i32 %59

60:                                               ; preds = %57
  %61 = load ptr, ptr %11, align 8
  %62 = load i32, ptr %12, align 4
  %63 = insertvalue { ptr, i32 } poison, ptr %61, 0
  %64 = insertvalue { ptr, i32 } %63, i32 %62, 1
  resume { ptr, i32 } %64
}

; Function Attrs: inlinehint mustprogress nounwind uwtable
define internal noundef signext i8 @_ZL9U_FAILURE10UErrorCode(i32 noundef %0) #2 {
  %2 = alloca i32, align 4
  store i32 %0, ptr %2, align 4, !tbaa !15
  %3 = load i32, ptr %2, align 4, !tbaa !15
  %4 = icmp sgt i32 %3, 0
  %5 = zext i1 %4 to i8
  ret i8 %5
}

; Function Attrs: mustprogress uwtable
define noundef i32 @_Z19ucasemap_mapUTF8_77ijPN6icu_7713BreakIteratorEPciPKciPFvijS1_PKhiRNS_8ByteSinkEPNS_5EditsER10UErrorCodeESA_SC_(i32 noundef %0, i32 noundef %1, ptr noundef %2, ptr noundef %3, i32 noundef %4, ptr noundef %5, i32 noundef %6, ptr noundef %7, ptr noundef %8, ptr noundef nonnull align 4 dereferenceable(4) %9) #1 {
  %11 = alloca i32, align 4
  %12 = alloca i32, align 4
  %13 = alloca i32, align 4
  %14 = alloca ptr, align 8
  %15 = alloca ptr, align 8
  %16 = alloca i32, align 4
  %17 = alloca ptr, align 8
  %18 = alloca i32, align 4
  %19 = alloca ptr, align 8
  %20 = alloca ptr, align 8
  %21 = alloca ptr, align 8
  %22 = alloca i32, align 4
  %23 = alloca %class.anon, align 8
  store i32 %0, ptr %12, align 4, !tbaa !14
  store i32 %1, ptr %13, align 4, !tbaa !14
  store ptr %2, ptr %14, align 8, !tbaa !33
  store ptr %3, ptr %15, align 8, !tbaa !17
  store i32 %4, ptr %16, align 4, !tbaa !14
  store ptr %5, ptr %17, align 8, !tbaa !17
  store i32 %6, ptr %18, align 4, !tbaa !14
  store ptr %7, ptr %19, align 8, !tbaa !22
  store ptr %8, ptr %20, align 8, !tbaa !36
  store ptr %9, ptr %21, align 8, !tbaa !22
  %24 = load ptr, ptr %21, align 8, !tbaa !22
  %25 = load i32, ptr %24, align 4, !tbaa !15
  %26 = call noundef signext i8 @_ZL9U_FAILURE10UErrorCode(i32 noundef %25)
  %27 = icmp ne i8 %26, 0
  br i1 %27, label %28, label %29

28:                                               ; preds = %10
  store i32 0, ptr %11, align 4
  br label %117

29:                                               ; preds = %10
  %30 = load i32, ptr %16, align 4, !tbaa !14
  %31 = icmp slt i32 %30, 0
  br i1 %31, label %47, label %32

32:                                               ; preds = %29
  %33 = load ptr, ptr %15, align 8, !tbaa !17
  %34 = icmp eq ptr %33, null
  br i1 %34, label %35, label %38

35:                                               ; preds = %32
  %36 = load i32, ptr %16, align 4, !tbaa !14
  %37 = icmp sgt i32 %36, 0
  br i1 %37, label %47, label %38

38:                                               ; preds = %35, %32
  %39 = load ptr, ptr %17, align 8, !tbaa !17
  %40 = icmp eq ptr %39, null
  br i1 %40, label %41, label %44

41:                                               ; preds = %38
  %42 = load i32, ptr %18, align 4, !tbaa !14
  %43 = icmp ne i32 %42, 0
  br i1 %43, label %47, label %44

44:                                               ; preds = %41, %38
  %45 = load i32, ptr %18, align 4, !tbaa !14
  %46 = icmp slt i32 %45, -1
  br i1 %46, label %47, label %49

47:                                               ; preds = %44, %41, %35, %29
  %48 = load ptr, ptr %21, align 8, !tbaa !22
  store i32 1, ptr %48, align 4, !tbaa !15
  store i32 0, ptr %11, align 4
  br label %117

49:                                               ; preds = %44
  %50 = load i32, ptr %18, align 4, !tbaa !14
  %51 = icmp eq i32 %50, -1
  br i1 %51, label %52, label %56

52:                                               ; preds = %49
  %53 = load ptr, ptr %17, align 8, !tbaa !17
  %54 = call i64 @strlen(ptr noundef %53) #15
  %55 = trunc i64 %54 to i32
  store i32 %55, ptr %18, align 4, !tbaa !14
  br label %56

56:                                               ; preds = %52, %49
  %57 = load ptr, ptr %15, align 8, !tbaa !17
  %58 = icmp ne ptr %57, null
  br i1 %58, label %59, label %83

59:                                               ; preds = %56
  %60 = load ptr, ptr %17, align 8, !tbaa !17
  %61 = load ptr, ptr %15, align 8, !tbaa !17
  %62 = icmp uge ptr %60, %61
  br i1 %62, label %63, label %70

63:                                               ; preds = %59
  %64 = load ptr, ptr %17, align 8, !tbaa !17
  %65 = load ptr, ptr %15, align 8, !tbaa !17
  %66 = load i32, ptr %16, align 4, !tbaa !14
  %67 = sext i32 %66 to i64
  %68 = getelementptr inbounds i8, ptr %65, i64 %67
  %69 = icmp ult ptr %64, %68
  br i1 %69, label %81, label %70

70:                                               ; preds = %63, %59
  %71 = load ptr, ptr %15, align 8, !tbaa !17
  %72 = load ptr, ptr %17, align 8, !tbaa !17
  %73 = icmp uge ptr %71, %72
  br i1 %73, label %74, label %83

74:                                               ; preds = %70
  %75 = load ptr, ptr %15, align 8, !tbaa !17
  %76 = load ptr, ptr %17, align 8, !tbaa !17
  %77 = load i32, ptr %18, align 4, !tbaa !14
  %78 = sext i32 %77 to i64
  %79 = getelementptr inbounds i8, ptr %76, i64 %78
  %80 = icmp ult ptr %75, %79
  br i1 %80, label %81, label %83

81:                                               ; preds = %74, %63
  %82 = load ptr, ptr %21, align 8, !tbaa !22
  store i32 1, ptr %82, align 4, !tbaa !15
  store i32 0, ptr %11, align 4
  br label %117

83:                                               ; preds = %74, %70, %56
  %84 = load ptr, ptr %20, align 8, !tbaa !36
  %85 = icmp ne ptr %84, null
  br i1 %85, label %86, label %92

86:                                               ; preds = %83
  %87 = load i32, ptr %13, align 4, !tbaa !14
  %88 = and i32 %87, 8192
  %89 = icmp eq i32 %88, 0
  br i1 %89, label %90, label %92

90:                                               ; preds = %86
  %91 = load ptr, ptr %20, align 8, !tbaa !36
  call void @_ZN6icu_775Edits5resetEv(ptr noundef nonnull align 8 dereferenceable(232) %91) #12
  br label %92

92:                                               ; preds = %90, %86, %83
  call void @llvm.lifetime.start.p0(i64 4, ptr %22) #12
  %93 = load ptr, ptr %15, align 8, !tbaa !17
  %94 = load i32, ptr %16, align 4, !tbaa !14
  call void @llvm.lifetime.start.p0(i64 56, ptr %23) #12
  %95 = getelementptr inbounds nuw %class.anon, ptr %23, i32 0, i32 0
  store ptr %19, ptr %95, align 8, !tbaa !74
  %96 = getelementptr inbounds nuw %class.anon, ptr %23, i32 0, i32 1
  store ptr %12, ptr %96, align 8, !tbaa !20
  %97 = getelementptr inbounds nuw %class.anon, ptr %23, i32 0, i32 2
  store ptr %13, ptr %97, align 8, !tbaa !20
  %98 = getelementptr inbounds nuw %class.anon, ptr %23, i32 0, i32 3
  store ptr %14, ptr %98, align 8, !tbaa !76
  %99 = getelementptr inbounds nuw %class.anon, ptr %23, i32 0, i32 4
  store ptr %17, ptr %99, align 8, !tbaa !78
  %100 = getelementptr inbounds nuw %class.anon, ptr %23, i32 0, i32 5
  store ptr %18, ptr %100, align 8, !tbaa !20
  %101 = getelementptr inbounds nuw %class.anon, ptr %23, i32 0, i32 6
  store ptr %20, ptr %101, align 8, !tbaa !80
  %102 = load ptr, ptr %21, align 8, !tbaa !22
  %103 = call noundef i32 @"_ZN6icu_7712ByteSinkUtil28viaByteSinkToTerminatedCharsIZ19ucasemap_mapUTF8_77ijPNS_13BreakIteratorEPciPKciPFvijS3_PKhiRNS_8ByteSinkEPNS_5EditsER10UErrorCodeESC_SE_E3$_0vEEiS4_iOT_SE_"(ptr noundef %93, i32 noundef %94, ptr noundef nonnull align 8 dereferenceable(56) %23, ptr noundef nonnull align 4 dereferenceable(4) %102)
  call void @llvm.lifetime.end.p0(i64 56, ptr %23) #12
  store i32 %103, ptr %22, align 4, !tbaa !14
  %104 = load ptr, ptr %21, align 8, !tbaa !22
  %105 = load i32, ptr %104, align 4, !tbaa !15
  %106 = call noundef signext i8 @_ZL9U_SUCCESS10UErrorCode(i32 noundef %105)
  %107 = icmp ne i8 %106, 0
  br i1 %107, label %108, label %115

108:                                              ; preds = %92
  %109 = load ptr, ptr %20, align 8, !tbaa !36
  %110 = icmp ne ptr %109, null
  br i1 %110, label %111, label %115

111:                                              ; preds = %108
  %112 = load ptr, ptr %20, align 8, !tbaa !36
  %113 = load ptr, ptr %21, align 8, !tbaa !22
  %114 = call noundef signext i8 @_ZNK6icu_775Edits11copyErrorToER10UErrorCode(ptr noundef nonnull align 8 dereferenceable(232) %112, ptr noundef nonnull align 4 dereferenceable(4) %113)
  br label %115

115:                                              ; preds = %111, %108, %92
  %116 = load i32, ptr %22, align 4, !tbaa !14
  store i32 %116, ptr %11, align 4
  call void @llvm.lifetime.end.p0(i64 4, ptr %22) #12
  br label %117

117:                                              ; preds = %115, %81, %47, %28
  %118 = load i32, ptr %11, align 4
  ret i32 %118
}