; Function Attrs: mustprogress uwtable
define noundef i32 @_Z19ucasemap_mapUTF8_77ijPN6icu_7713BreakIteratorEPciPKciPFvijS1_PKhiRNS_8ByteSinkEPNS_5EditsER10UErrorCodeESA_SC_(i32 noundef %0, i32 noundef %1, ptr noundef %2, ptr noundef %3, i32 noundef %4, ptr noundef %5, i32 noundef %6, ptr noundef readonly captures(none) %7, ptr noundef %8, ptr noundef nonnull align 4 dereferenceable(4) %9) local_unnamed_addr #1 personality ptr @__gxx_personality_v0 {
  %11 = alloca %"class.icu_77::CheckedArrayByteSink", align 8
  %12 = load i32, ptr %9, align 4, !tbaa !13
  %13 = icmp slt i32 %12, 1
  br i1 %13, label %14, label %"_ZN6icu_7712ByteSinkUtil28viaByteSinkToTerminatedCharsIZ19ucasemap_mapUTF8_77ijPNS_13BreakIteratorEPciPKciPFvijS3_PKhiRNS_8ByteSinkEPNS_5EditsER10UErrorCodeESC_SE_E3$_0vEEiS4_iOT_SE_.exit.thread"

14:                                               ; preds = %10
  %15 = icmp slt i32 %4, 0
  br i1 %15, label %23, label %16

16:                                               ; preds = %14
  %17 = icmp eq ptr %3, null
  %18 = icmp ne i32 %4, 0
  %or.cond = and i1 %17, %18
  br i1 %or.cond, label %23, label %19

19:                                               ; preds = %16
  %20 = icmp eq ptr %5, null
  %21 = icmp ne i32 %6, 0
  %or.cond3 = and i1 %20, %21
  %22 = icmp slt i32 %6, -1
  %or.cond5 = or i1 %22, %or.cond3
  br i1 %or.cond5, label %23, label %24

23:                                               ; preds = %19, %16, %14
  store i32 1, ptr %9, align 4, !tbaa !13
  br label %"_ZN6icu_7712ByteSinkUtil28viaByteSinkToTerminatedCharsIZ19ucasemap_mapUTF8_77ijPNS_13BreakIteratorEPciPKciPFvijS3_PKhiRNS_8ByteSinkEPNS_5EditsER10UErrorCodeESC_SE_E3$_0vEEiS4_iOT_SE_.exit.thread"

24:                                               ; preds = %19
  %25 = icmp eq i32 %6, -1
  br i1 %25, label %26, label %29

26:                                               ; preds = %24
  %27 = tail call i64 @strlen(ptr noundef nonnull dereferenceable(1) %5) #20
  %28 = trunc i64 %27 to i32
  br label %29

29:                                               ; preds = %26, %24
  %.056 = phi i32 [ %28, %26 ], [ %6, %24 ]
  br i1 %17, label %39, label %30

30:                                               ; preds = %29
  %.not33 = icmp uge ptr %5, %3
  %31 = zext nneg i32 %4 to i64
  %32 = getelementptr inbounds nuw i8, ptr %3, i64 %31
  %33 = icmp ult ptr %5, %32
  %or.cond38 = select i1 %.not33, i1 %33, i1 false
  br i1 %or.cond38, label %38, label %34

34:                                               ; preds = %30
  %.not34 = icmp uge ptr %3, %5
  %35 = sext i32 %.056 to i64
  %36 = getelementptr inbounds i8, ptr %5, i64 %35
  %37 = icmp ult ptr %3, %36
  %or.cond42 = select i1 %.not34, i1 %37, i1 false
  br i1 %or.cond42, label %38, label %39

38:                                               ; preds = %34, %30
  store i32 1, ptr %9, align 4, !tbaa !13
  br label %"_ZN6icu_7712ByteSinkUtil28viaByteSinkToTerminatedCharsIZ19ucasemap_mapUTF8_77ijPNS_13BreakIteratorEPciPKciPFvijS3_PKhiRNS_8ByteSinkEPNS_5EditsER10UErrorCodeESC_SE_E3$_0vEEiS4_iOT_SE_.exit.thread"

39:                                               ; preds = %34, %29
  %.not35 = icmp ne ptr %8, null
  %40 = and i32 %1, 8192
  %41 = icmp eq i32 %40, 0
  %or.cond58 = and i1 %41, %.not35
  br i1 %or.cond58, label %42, label %.thread

42:                                               ; preds = %39
  tail call void @_ZN6icu_775Edits5resetEv(ptr noundef nonnull align 8 dereferenceable(232) %8) #17
  %.pre = load i32, ptr %9, align 4, !tbaa !13
  %43 = icmp slt i32 %.pre, 1
  br i1 %43, label %.thread, label %"_ZN6icu_7712ByteSinkUtil28viaByteSinkToTerminatedCharsIZ19ucasemap_mapUTF8_77ijPNS_13BreakIteratorEPciPKciPFvijS3_PKhiRNS_8ByteSinkEPNS_5EditsER10UErrorCodeESC_SE_E3$_0vEEiS4_iOT_SE_.exit.thread"

.thread:                                          ; preds = %39, %42
  call void @llvm.lifetime.start.p0(i64 32, ptr nonnull %11) #17
  call void @_ZN6icu_7720CheckedArrayByteSinkC1EPci(ptr noundef nonnull align 8 dereferenceable(29) %11, ptr noundef %3, i32 noundef range(i32 0, -2147483648) %4)
  invoke void %7(i32 noundef %0, i32 noundef %1, ptr noundef %2, ptr noundef %5, i32 noundef %.056, ptr noundef nonnull align 8 dereferenceable(8) %11, ptr noundef %8, ptr noundef nonnull align 4 dereferenceable(4) %9)
          to label %"_ZZ19ucasemap_mapUTF8_77ijPN6icu_7713BreakIteratorEPciPKciPFvijS1_PKhiRNS_8ByteSinkEPNS_5EditsER10UErrorCodeESA_SC_ENK3$_0clES8_SC_.exit.i" unwind label %46

"_ZZ19ucasemap_mapUTF8_77ijPN6icu_7713BreakIteratorEPciPKciPFvijS1_PKhiRNS_8ByteSinkEPNS_5EditsER10UErrorCodeESA_SC_ENK3$_0clES8_SC_.exit.i": ; preds = %.thread
  %44 = load i32, ptr %9, align 4, !tbaa !13
  %45 = icmp slt i32 %44, 1
  br i1 %45, label %48, label %"_ZN6icu_7712ByteSinkUtil28viaByteSinkToTerminatedCharsIZ19ucasemap_mapUTF8_77ijPNS_13BreakIteratorEPciPKciPFvijS3_PKhiRNS_8ByteSinkEPNS_5EditsER10UErrorCodeESC_SE_E3$_0vEEiS4_iOT_SE_.exit"

46:                                               ; preds = %.thread
  %47 = landingpad { ptr, i32 }
          cleanup
  br label %58

48:                                               ; preds = %"_ZZ19ucasemap_mapUTF8_77ijPN6icu_7713BreakIteratorEPciPKciPFvijS1_PKhiRNS_8ByteSinkEPNS_5EditsER10UErrorCodeESA_SC_ENK3$_0clES8_SC_.exit.i"
  %49 = getelementptr inbounds nuw i8, ptr %11, i64 24
  %50 = load i32, ptr %49, align 8, !tbaa !49
  %51 = getelementptr inbounds nuw i8, ptr %11, i64 28
  %52 = load i8, ptr %51, align 4, !tbaa !52
  %.not17.i = icmp eq i8 %52, 0
  br i1 %.not17.i, label %56, label %53

53:                                               ; preds = %48
  store i32 15, ptr %9, align 4, !tbaa !13
  br label %"_ZN6icu_7712ByteSinkUtil28viaByteSinkToTerminatedCharsIZ19ucasemap_mapUTF8_77ijPNS_13BreakIteratorEPciPKciPFvijS3_PKhiRNS_8ByteSinkEPNS_5EditsER10UErrorCodeESC_SE_E3$_0vEEiS4_iOT_SE_.exit"

54:                                               ; preds = %56
  %55 = landingpad { ptr, i32 }
          cleanup
  br label %58

56:                                               ; preds = %48
  %57 = invoke i32 @u_terminateChars_77(ptr noundef %3, i32 noundef range(i32 0, -2147483648) %4, i32 noundef %50, ptr noundef nonnull align 4 dereferenceable(4) %9)
          to label %"_ZN6icu_7712ByteSinkUtil28viaByteSinkToTerminatedCharsIZ19ucasemap_mapUTF8_77ijPNS_13BreakIteratorEPciPKciPFvijS3_PKhiRNS_8ByteSinkEPNS_5EditsER10UErrorCodeESC_SE_E3$_0vEEiS4_iOT_SE_.exit" unwind label %54

58:                                               ; preds = %54, %46
  %.pn.i = phi { ptr, i32 } [ %55, %54 ], [ %47, %46 ]
  call void @_ZN6icu_7720CheckedArrayByteSinkD1Ev(ptr noundef nonnull align 8 dereferenceable(29) %11) #17
  call void @llvm.lifetime.end.p0(i64 32, ptr nonnull %11) #17
  resume { ptr, i32 } %.pn.i

"_ZN6icu_7712ByteSinkUtil28viaByteSinkToTerminatedCharsIZ19ucasemap_mapUTF8_77ijPNS_13BreakIteratorEPciPKciPFvijS3_PKhiRNS_8ByteSinkEPNS_5EditsER10UErrorCodeESC_SE_E3$_0vEEiS4_iOT_SE_.exit": ; preds = %"_ZZ19ucasemap_mapUTF8_77ijPN6icu_7713BreakIteratorEPciPKciPFvijS1_PKhiRNS_8ByteSinkEPNS_5EditsER10UErrorCodeESA_SC_ENK3$_0clES8_SC_.exit.i", %53, %56
  %.1.i = phi i32 [ 0, %"_ZZ19ucasemap_mapUTF8_77ijPN6icu_7713BreakIteratorEPciPKciPFvijS1_PKhiRNS_8ByteSinkEPNS_5EditsER10UErrorCodeESA_SC_ENK3$_0clES8_SC_.exit.i" ], [ %50, %53 ], [ %57, %56 ]
  call void @_ZN6icu_7720CheckedArrayByteSinkD1Ev(ptr noundef nonnull align 8 dereferenceable(29) %11) #17
  call void @llvm.lifetime.end.p0(i64 32, ptr nonnull %11) #17
  %.pre59 = load i32, ptr %9, align 4, !tbaa !13
  %59 = icmp slt i32 %.pre59, 1
  %or.cond7 = and i1 %.not35, %59
  br i1 %or.cond7, label %60, label %"_ZN6icu_7712ByteSinkUtil28viaByteSinkToTerminatedCharsIZ19ucasemap_mapUTF8_77ijPNS_13BreakIteratorEPciPKciPFvijS3_PKhiRNS_8ByteSinkEPNS_5EditsER10UErrorCodeESC_SE_E3$_0vEEiS4_iOT_SE_.exit.thread"

60:                                               ; preds = %"_ZN6icu_7712ByteSinkUtil28viaByteSinkToTerminatedCharsIZ19ucasemap_mapUTF8_77ijPNS_13BreakIteratorEPciPKciPFvijS3_PKhiRNS_8ByteSinkEPNS_5EditsER10UErrorCodeESC_SE_E3$_0vEEiS4_iOT_SE_.exit"
  %61 = call noundef signext i8 @_ZNK6icu_775Edits11copyErrorToER10UErrorCode(ptr noundef nonnull align 8 dereferenceable(232) %8, ptr noundef nonnull align 4 dereferenceable(4) %9)
  br label %"_ZN6icu_7712ByteSinkUtil28viaByteSinkToTerminatedCharsIZ19ucasemap_mapUTF8_77ijPNS_13BreakIteratorEPciPKciPFvijS3_PKhiRNS_8ByteSinkEPNS_5EditsER10UErrorCodeESC_SE_E3$_0vEEiS4_iOT_SE_.exit.thread"

"_ZN6icu_7712ByteSinkUtil28viaByteSinkToTerminatedCharsIZ19ucasemap_mapUTF8_77ijPNS_13BreakIteratorEPciPKciPFvijS3_PKhiRNS_8ByteSinkEPNS_5EditsER10UErrorCodeESC_SE_E3$_0vEEiS4_iOT_SE_.exit.thread": ; preds = %42, %"_ZN6icu_7712ByteSinkUtil28viaByteSinkToTerminatedCharsIZ19ucasemap_mapUTF8_77ijPNS_13BreakIteratorEPciPKciPFvijS3_PKhiRNS_8ByteSinkEPNS_5EditsER10UErrorCodeESC_SE_E3$_0vEEiS4_iOT_SE_.exit", %60, %10, %38, %23
  %.0 = phi i32 [ 0, %23 ], [ 0, %38 ], [ 0, %10 ], [ %.1.i, %60 ], [ %.1.i, %"_ZN6icu_7712ByteSinkUtil28viaByteSinkToTerminatedCharsIZ19ucasemap_mapUTF8_77ijPNS_13BreakIteratorEPciPKciPFvijS3_PKhiRNS_8ByteSinkEPNS_5EditsER10UErrorCodeESC_SE_E3$_0vEEiS4_iOT_SE_.exit" ], [ 0, %42 ]
  ret i32 %.0
}